; Function Attrs: nounwind uwtable
define dso_local void @addClientToTimeoutTable(ptr noundef %0) local_unnamed_addr #0 {
  %2 = alloca [16 x i8], align 16
  %3 = getelementptr inbounds nuw i8, ptr %0, i64 488
  %4 = load i64, ptr %3, align 8, !tbaa !28
  %5 = icmp eq i64 %4, 0
  br i1 %5, label %16, label %6

6:                                                ; preds = %1
  call void @llvm.lifetime.start.p0(i64 16, ptr nonnull %2) #4
  %7 = tail call i64 @intrev64(i64 noundef %4) #4
  store i64 %7, ptr %2, align 16
  %8 = getelementptr inbounds nuw i8, ptr %2, i64 8
  store ptr %0, ptr %8, align 8
  %9 = load ptr, ptr getelementptr inbounds nuw (i8, ptr @server, i64 1504), align 8, !tbaa !53
  %10 = call i32 @raxTryInsert(ptr noundef %9, ptr noundef nonnull %2, i64 noundef 16, ptr noundef null, ptr noundef null) #4
  %.not = icmp eq i32 %10, 0
  br i1 %.not, label %15, label %11

11:                                               ; preds = %6
  %12 = getelementptr inbounds nuw i8, ptr %0, i64 8
  %13 = load i64, ptr %12, align 8, !tbaa !5
  %14 = or i64 %13, 274877906944
  store i64 %14, ptr %12, align 8, !tbaa !5
  br label %15

15:                                               ; preds = %11, %6
  call void @llvm.lifetime.end.p0(i64 16, ptr nonnull %2) #4
  br label %16

16:                                               ; preds = %1, %15
  ret void
}